target datalayout = "e-m:e-p270:32:32-p271:32:32-p272:64:64-i64:64-i128:128-f80:128-n8:16:32:64-S128"
target triple = "x86_64-pc-linux-gnu"

%"class.icu_77::MaybeStackArray" = type <{ ptr, i32, i8, [40 x i8], [3 x i8] }>
%struct.CollatorSpec = type { [6 x %"class.icu_77::CharString"], %"class.icu_77::CharString", [8 x i32], i32, [32 x i16], i32, i8, [7 x i8], [17 x %"class.icu_77::CharString"] }
%"class.icu_77::CharString" = type { %"class.icu_77::MaybeStackArray", i32, [4 x i8] }
%"class.icu_77::StringPiece" = type <{ ptr, i32, [4 x i8] }>

@.str.4 = private unnamed_addr constant [2 x i8] c"_\00", align 1
@_ZL16collationKeyword = internal constant [12 x i8] c"@collation=\00", align 1
@_ZL15providerKeyword = internal constant [5 x i8] c"@sp=\00", align 1

; Function Attrs: mustprogress nounwind uwtable
define weak_odr noundef ptr @_ZNK6icu_7715MaybeStackArrayIcLi40EE8getAliasEv(ptr noundef nonnull align 8 dereferenceable(53) %0) #0 comdat align 2 {
  %2 = alloca ptr, align 8
  store ptr %0, ptr %2, align 8, !tbaa !3
  %3 = load ptr, ptr %2, align 8
  %4 = getelementptr inbounds nuw %"class.icu_77::MaybeStackArray", ptr %3, i32 0, i32 0
  %5 = load ptr, ptr %4, align 8, !tbaa !8
  ret ptr %5
}

; Function Attrs: mustprogress nounwind uwtable
define linkonce_odr noundef i32 @_ZNK6icu_7711StringPiece6lengthEv(ptr noundef nonnull align 8 dereferenceable(12) %0) #0 comdat align 2 {
  %2 = alloca ptr, align 8
  store ptr %0, ptr %2, align 8, !tbaa !50
  %3 = load ptr, ptr %2, align 8
  %4 = getelementptr inbounds nuw %"class.icu_77::StringPiece", ptr %3, i32 0, i32 1
  %5 = load i32, ptr %4, align 8, !tbaa !86
  ret i32 %5
}

; Function Attrs: mustprogress nounwind uwtable
define linkonce_odr noundef ptr @_ZNK6icu_7711StringPiece4dataEv(ptr noundef nonnull align 8 dereferenceable(12) %0) #0 comdat align 2 {
  %2 = alloca ptr, align 8
  store ptr %0, ptr %2, align 8, !tbaa !50
  %3 = load ptr, ptr %2, align 8
  %4 = getelementptr inbounds nuw %"class.icu_77::StringPiece", ptr %3, i32 0, i32 0
  %5 = load ptr, ptr %4, align 8, !tbaa !84
  ret ptr %5
}

; Function Attrs: mustprogress nounwind uwtable
define linkonce_odr noundef i32 @_ZNK6icu_7710CharString6lengthEv(ptr noundef nonnull align 8 dereferenceable(60) %0) #0 comdat align 2 {
  %2 = alloca ptr, align 8
  store ptr %0, ptr %2, align 8, !tbaa !47
  %3 = load ptr, ptr %2, align 8
  %4 = getelementptr inbounds nuw %"class.icu_77::CharString", ptr %3, i32 0, i32 1
  %5 = load i32, ptr %4, align 8, !tbaa !49
  ret i32 %5
}

; Function Attrs: mustprogress nounwind uwtable
define linkonce_odr noundef ptr @_ZNK6icu_7710CharString4dataEv(ptr noundef nonnull align 8 dereferenceable(60) %0) #0 comdat align 2 {
  %2 = alloca ptr, align 8
  store ptr %0, ptr %2, align 8, !tbaa !47
  %3 = load ptr, ptr %2, align 8
  %4 = getelementptr inbounds nuw %"class.icu_77::CharString", ptr %3, i32 0, i32 0
  %5 = call noundef ptr @_ZNK6icu_7715MaybeStackArrayIcLi40EE8getAliasEv(ptr noundef nonnull align 8 dereferenceable(53) %4)
  ret ptr %5
}

; Function Attrs: mustprogress uwtable
define linkonce_odr noundef nonnull align 8 dereferenceable(60) ptr @_ZN6icu_7710CharString6appendENS_11StringPieceER10UErrorCode(ptr noundef nonnull align 8 dereferenceable(60) %0, ptr %1, i32 %2, ptr noundef nonnull align 4 dereferenceable(4) %3) #1 comdat align 2 {
  %5 = alloca %"class.icu_77::StringPiece", align 8
  %6 = alloca ptr, align 8
  %7 = alloca ptr, align 8
  %8 = getelementptr inbounds nuw { ptr, i32 }, ptr %5, i32 0, i32 0
  store ptr %1, ptr %8, align 8
  %9 = getelementptr inbounds nuw { ptr, i32 }, ptr %5, i32 0, i32 1
  store i32 %2, ptr %9, align 8
  store ptr %0, ptr %6, align 8, !tbaa !47
  store ptr %3, ptr %7, align 8, !tbaa !22
  %10 = load ptr, ptr %6, align 8
  %11 = call noundef ptr @_ZNK6icu_7711StringPiece4dataEv(ptr noundef nonnull align 8 dereferenceable(12) %5)
  %12 = call noundef i32 @_ZNK6icu_7711StringPiece6lengthEv(ptr noundef nonnull align 8 dereferenceable(12) %5)
  %13 = load ptr, ptr %7, align 8, !tbaa !22
  %14 = call noundef nonnull align 8 dereferenceable(60) ptr @_ZN6icu_7710CharString6appendEPKciR10UErrorCode(ptr noundef nonnull align 8 dereferenceable(60) %10, ptr noundef %11, i32 noundef %12, ptr noundef nonnull align 4 dereferenceable(4) %13)
  ret ptr %14
}

; Function Attrs: mustprogress uwtable
define linkonce_odr noundef nonnull align 8 dereferenceable(60) ptr @_ZN6icu_7710CharString6appendERKS0_R10UErrorCode(ptr noundef nonnull align 8 dereferenceable(60) %0, ptr noundef nonnull align 8 dereferenceable(60) %1, ptr noundef nonnull align 4 dereferenceable(4) %2) #1 comdat align 2 {
  %4 = alloca ptr, align 8
  %5 = alloca ptr, align 8
  %6 = alloca ptr, align 8
  store ptr %0, ptr %4, align 8, !tbaa !47
  store ptr %1, ptr %5, align 8, !tbaa !47
  store ptr %2, ptr %6, align 8, !tbaa !22
  %7 = load ptr, ptr %4, align 8
  %8 = load ptr, ptr %5, align 8, !tbaa !47
  %9 = call noundef ptr @_ZNK6icu_7710CharString4dataEv(ptr noundef nonnull align 8 dereferenceable(60) %8)
  %10 = load ptr, ptr %5, align 8, !tbaa !47
  %11 = call noundef i32 @_ZNK6icu_7710CharString6lengthEv(ptr noundef nonnull align 8 dereferenceable(60) %10)
  %12 = load ptr, ptr %6, align 8, !tbaa !22
  %13 = call noundef nonnull align 8 dereferenceable(60) ptr @_ZN6icu_7710CharString6appendEPKciR10UErrorCode(ptr noundef nonnull align 8 dereferenceable(60) %7, ptr noundef %9, i32 noundef %11, ptr noundef nonnull align 4 dereferenceable(4) %12)
  ret ptr %13
}

; Function Attrs: mustprogress nounwind uwtable
define linkonce_odr noundef signext i8 @_ZNK6icu_7710CharString7isEmptyEv(ptr noundef nonnull align 8 dereferenceable(60) %0) #0 comdat align 2 {
  %2 = alloca ptr, align 8
  store ptr %0, ptr %2, align 8, !tbaa !47
  %3 = load ptr, ptr %2, align 8
  %4 = getelementptr inbounds nuw %"class.icu_77::CharString", ptr %3, i32 0, i32 1
  %5 = load i32, ptr %4, align 8, !tbaa !49
  %6 = icmp eq i32 %5, 0
  %7 = zext i1 %6 to i8
  ret i8 %7
}

; Function Attrs: mustprogress uwtable
define internal void @_ZL29ucol_sit_calculateWholeLocaleP12CollatorSpecR10UErrorCode(ptr noundef %0, ptr noundef nonnull align 4 dereferenceable(4) %1) #1 {
  %3 = alloca ptr, align 8
  %4 = alloca ptr, align 8
  %5 = alloca %"class.icu_77::StringPiece", align 8
  %6 = alloca %"class.icu_77::StringPiece", align 8
  %7 = alloca %"class.icu_77::StringPiece", align 8
  %8 = alloca %"class.icu_77::StringPiece", align 8
  %9 = alloca %"class.icu_77::StringPiece", align 8
  %10 = alloca %"class.icu_77::StringPiece", align 8
  store ptr %0, ptr %3, align 8, !tbaa !35
  store ptr %1, ptr %4, align 8, !tbaa !22
  %11 = load ptr, ptr %3, align 8, !tbaa !35
  %12 = getelementptr inbounds nuw %struct.CollatorSpec, ptr %11, i32 0, i32 1
  %13 = call noundef signext i8 @_ZNK6icu_7710CharString7isEmptyEv(ptr noundef nonnull align 8 dereferenceable(60) %12)
  %14 = icmp ne i8 %13, 0
  br i1 %14, label %15, label %149

15:                                               ; preds = %2
  %16 = load ptr, ptr %3, align 8, !tbaa !35
  %17 = getelementptr inbounds nuw %struct.CollatorSpec, ptr %16, i32 0, i32 1
  %18 = load ptr, ptr %3, align 8, !tbaa !35
  %19 = getelementptr inbounds nuw %struct.CollatorSpec, ptr %18, i32 0, i32 0
  %20 = getelementptr inbounds nuw [6 x %"class.icu_77::CharString"], ptr %19, i64 0, i64 0
  %21 = load ptr, ptr %4, align 8, !tbaa !22
  %22 = call noundef nonnull align 8 dereferenceable(60) ptr @_ZN6icu_7710CharString6appendERKS0_R10UErrorCode(ptr noundef nonnull align 8 dereferenceable(60) %17, ptr noundef nonnull align 8 dereferenceable(60) %20, ptr noundef nonnull align 4 dereferenceable(4) %21)
  %23 = load ptr, ptr %3, align 8, !tbaa !35
  %24 = getelementptr inbounds nuw %struct.CollatorSpec, ptr %23, i32 0, i32 0
  %25 = getelementptr inbounds nuw [6 x %"class.icu_77::CharString"], ptr %24, i64 0, i64 1
  %26 = call noundef signext i8 @_ZNK6icu_7710CharString7isEmptyEv(ptr noundef nonnull align 8 dereferenceable(60) %25)
  %27 = icmp ne i8 %26, 0
  br i1 %27, label %44, label %28

28:                                               ; preds = %15
  %29 = load ptr, ptr %3, align 8, !tbaa !35
  %30 = getelementptr inbounds nuw %struct.CollatorSpec, ptr %29, i32 0, i32 1
  call void @_ZN6icu_7711StringPieceC1EPKc(ptr noundef nonnull align 8 dereferenceable(12) %5, ptr noundef @.str.4)
  %31 = load ptr, ptr %4, align 8, !tbaa !22
  %32 = getelementptr inbounds nuw { ptr, i32 }, ptr %5, i32 0, i32 0
  %33 = load ptr, ptr %32, align 8
  %34 = getelementptr inbounds nuw { ptr, i32 }, ptr %5, i32 0, i32 1
  %35 = load i32, ptr %34, align 8
  %36 = call noundef nonnull align 8 dereferenceable(60) ptr @_ZN6icu_7710CharString6appendENS_11StringPieceER10UErrorCode(ptr noundef nonnull align 8 dereferenceable(60) %30, ptr %33, i32 %35, ptr noundef nonnull align 4 dereferenceable(4) %31)
  %37 = load ptr, ptr %3, align 8, !tbaa !35
  %38 = getelementptr inbounds nuw %struct.CollatorSpec, ptr %37, i32 0, i32 1
  %39 = load ptr, ptr %3, align 8, !tbaa !35
  %40 = getelementptr inbounds nuw %struct.CollatorSpec, ptr %39, i32 0, i32 0
  %41 = getelementptr inbounds nuw [6 x %"class.icu_77::CharString"], ptr %40, i64 0, i64 1
  %42 = load ptr, ptr %4, align 8, !tbaa !22
  %43 = call noundef nonnull align 8 dereferenceable(60) ptr @_ZN6icu_7710CharString6appendERKS0_R10UErrorCode(ptr noundef nonnull align 8 dereferenceable(60) %38, ptr noundef nonnull align 8 dereferenceable(60) %41, ptr noundef nonnull align 4 dereferenceable(4) %42)
  br label %44

44:                                               ; preds = %28, %15
  %45 = load ptr, ptr %3, align 8, !tbaa !35
  %46 = getelementptr inbounds nuw %struct.CollatorSpec, ptr %45, i32 0, i32 0
  %47 = getelementptr inbounds nuw [6 x %"class.icu_77::CharString"], ptr %46, i64 0, i64 2
  %48 = call noundef signext i8 @_ZNK6icu_7710CharString7isEmptyEv(ptr noundef nonnull align 8 dereferenceable(60) %47)
  %49 = icmp ne i8 %48, 0
  br i1 %49, label %66, label %50

50:                                               ; preds = %44
  %51 = load ptr, ptr %3, align 8, !tbaa !35
  %52 = getelementptr inbounds nuw %struct.CollatorSpec, ptr %51, i32 0, i32 1
  call void @_ZN6icu_7711StringPieceC1EPKc(ptr noundef nonnull align 8 dereferenceable(12) %6, ptr noundef @.str.4)
  %53 = load ptr, ptr %4, align 8, !tbaa !22
  %54 = getelementptr inbounds nuw { ptr, i32 }, ptr %6, i32 0, i32 0
  %55 = load ptr, ptr %54, align 8
  %56 = getelementptr inbounds nuw { ptr, i32 }, ptr %6, i32 0, i32 1
  %57 = load i32, ptr %56, align 8
  %58 = call noundef nonnull align 8 dereferenceable(60) ptr @_ZN6icu_7710CharString6appendENS_11StringPieceER10UErrorCode(ptr noundef nonnull align 8 dereferenceable(60) %52, ptr %55, i32 %57, ptr noundef nonnull align 4 dereferenceable(4) %53)
  %59 = load ptr, ptr %3, align 8, !tbaa !35
  %60 = getelementptr inbounds nuw %struct.CollatorSpec, ptr %59, i32 0, i32 1
  %61 = load ptr, ptr %3, align 8, !tbaa !35
  %62 = getelementptr inbounds nuw %struct.CollatorSpec, ptr %61, i32 0, i32 0
  %63 = getelementptr inbounds nuw [6 x %"class.icu_77::CharString"], ptr %62, i64 0, i64 2
  %64 = load ptr, ptr %4, align 8, !tbaa !22
  %65 = call noundef nonnull align 8 dereferenceable(60) ptr @_ZN6icu_7710CharString6appendERKS0_R10UErrorCode(ptr noundef nonnull align 8 dereferenceable(60) %60, ptr noundef nonnull align 8 dereferenceable(60) %63, ptr noundef nonnull align 4 dereferenceable(4) %64)
  br label %82

66:                                               ; preds = %44
  %67 = load ptr, ptr %3, align 8, !tbaa !35
  %68 = getelementptr inbounds nuw %struct.CollatorSpec, ptr %67, i32 0, i32 0
  %69 = getelementptr inbounds nuw [6 x %"class.icu_77::CharString"], ptr %68, i64 0, i64 3
  %70 = call noundef signext i8 @_ZNK6icu_7710CharString7isEmptyEv(ptr noundef nonnull align 8 dereferenceable(60) %69)
  %71 = icmp ne i8 %70, 0
  br i1 %71, label %81, label %72

72:                                               ; preds = %66
  %73 = load ptr, ptr %3, align 8, !tbaa !35
  %74 = getelementptr inbounds nuw %struct.CollatorSpec, ptr %73, i32 0, i32 1
  call void @_ZN6icu_7711StringPieceC1EPKc(ptr noundef nonnull align 8 dereferenceable(12) %7, ptr noundef @.str.4)
  %75 = load ptr, ptr %4, align 8, !tbaa !22
  %76 = getelementptr inbounds nuw { ptr, i32 }, ptr %7, i32 0, i32 0
  %77 = load ptr, ptr %76, align 8
  %78 = getelementptr inbounds nuw { ptr, i32 }, ptr %7, i32 0, i32 1
  %79 = load i32, ptr %78, align 8
  %80 = call noundef nonnull align 8 dereferenceable(60) ptr @_ZN6icu_7710CharString6appendENS_11StringPieceER10UErrorCode(ptr noundef nonnull align 8 dereferenceable(60) %74, ptr %77, i32 %79, ptr noundef nonnull align 4 dereferenceable(4) %75)
  br label %81

81:                                               ; preds = %72, %66
  br label %82

82:                                               ; preds = %81, %50
  %83 = load ptr, ptr %3, align 8, !tbaa !35
  %84 = getelementptr inbounds nuw %struct.CollatorSpec, ptr %83, i32 0, i32 0
  %85 = getelementptr inbounds nuw [6 x %"class.icu_77::CharString"], ptr %84, i64 0, i64 3
  %86 = call noundef signext i8 @_ZNK6icu_7710CharString7isEmptyEv(ptr noundef nonnull align 8 dereferenceable(60) %85)
  %87 = icmp ne i8 %86, 0
  br i1 %87, label %104, label %88

88:                                               ; preds = %82
  %89 = load ptr, ptr %3, align 8, !tbaa !35
  %90 = getelementptr inbounds nuw %struct.CollatorSpec, ptr %89, i32 0, i32 1
  call void @_ZN6icu_7711StringPieceC1EPKc(ptr noundef nonnull align 8 dereferenceable(12) %8, ptr noundef @.str.4)
  %91 = load ptr, ptr %4, align 8, !tbaa !22
  %92 = getelementptr inbounds nuw { ptr, i32 }, ptr %8, i32 0, i32 0
  %93 = load ptr, ptr %92, align 8
  %94 = getelementptr inbounds nuw { ptr, i32 }, ptr %8, i32 0, i32 1
  %95 = load i32, ptr %94, align 8
  %96 = call noundef nonnull align 8 dereferenceable(60) ptr @_ZN6icu_7710CharString6appendENS_11StringPieceER10UErrorCode(ptr noundef nonnull align 8 dereferenceable(60) %90, ptr %93, i32 %95, ptr noundef nonnull align 4 dereferenceable(4) %91)
  %97 = load ptr, ptr %3, align 8, !tbaa !35
  %98 = getelementptr inbounds nuw %struct.CollatorSpec, ptr %97, i32 0, i32 1
  %99 = load ptr, ptr %3, align 8, !tbaa !35
  %100 = getelementptr inbounds nuw %struct.CollatorSpec, ptr %99, i32 0, i32 0
  %101 = getelementptr inbounds nuw [6 x %"class.icu_77::CharString"], ptr %100, i64 0, i64 3
  %102 = load ptr, ptr %4, align 8, !tbaa !22
  %103 = call noundef nonnull align 8 dereferenceable(60) ptr @_ZN6icu_7710CharString6appendERKS0_R10UErrorCode(ptr noundef nonnull align 8 dereferenceable(60) %98, ptr noundef nonnull align 8 dereferenceable(60) %101, ptr noundef nonnull align 4 dereferenceable(4) %102)
  br label %104

104:                                              ; preds = %88, %82
  %105 = load ptr, ptr %3, align 8, !tbaa !35
  %106 = getelementptr inbounds nuw %struct.CollatorSpec, ptr %105, i32 0, i32 0
  %107 = getelementptr inbounds nuw [6 x %"class.icu_77::CharString"], ptr %106, i64 0, i64 4
  %108 = call noundef signext i8 @_ZNK6icu_7710CharString7isEmptyEv(ptr noundef nonnull align 8 dereferenceable(60) %107)
  %109 = icmp ne i8 %108, 0
  br i1 %109, label %126, label %110

110:                                              ; preds = %104
  %111 = load ptr, ptr %3, align 8, !tbaa !35
  %112 = getelementptr inbounds nuw %struct.CollatorSpec, ptr %111, i32 0, i32 1
  call void @_ZN6icu_7711StringPieceC1EPKc(ptr noundef nonnull align 8 dereferenceable(12) %9, ptr noundef @_ZL16collationKeyword)
  %113 = load ptr, ptr %4, align 8, !tbaa !22
  %114 = getelementptr inbounds nuw { ptr, i32 }, ptr %9, i32 0, i32 0
  %115 = load ptr, ptr %114, align 8
  %116 = getelementptr inbounds nuw { ptr, i32 }, ptr %9, i32 0, i32 1
  %117 = load i32, ptr %116, align 8
  %118 = call noundef nonnull align 8 dereferenceable(60) ptr @_ZN6icu_7710CharString6appendENS_11StringPieceER10UErrorCode(ptr noundef nonnull align 8 dereferenceable(60) %112, ptr %115, i32 %117, ptr noundef nonnull align 4 dereferenceable(4) %113)
  %119 = load ptr, ptr %3, align 8, !tbaa !35
  %120 = getelementptr inbounds nuw %struct.CollatorSpec, ptr %119, i32 0, i32 1
  %121 = load ptr, ptr %3, align 8, !tbaa !35
  %122 = getelementptr inbounds nuw %struct.CollatorSpec, ptr %121, i32 0, i32 0
  %123 = getelementptr inbounds nuw [6 x %"class.icu_77::CharString"], ptr %122, i64 0, i64 4
  %124 = load ptr, ptr %4, align 8, !tbaa !22
  %125 = call noundef nonnull align 8 dereferenceable(60) ptr @_ZN6icu_7710CharString6appendERKS0_R10UErrorCode(ptr noundef nonnull align 8 dereferenceable(60) %120, ptr noundef nonnull align 8 dereferenceable(60) %123, ptr noundef nonnull align 4 dereferenceable(4) %124)
  br label %126

126:                                              ; preds = %110, %104
  %127 = load ptr, ptr %3, align 8, !tbaa !35
  %128 = getelementptr inbounds nuw %struct.CollatorSpec, ptr %127, i32 0, i32 0
  %129 = getelementptr inbounds nuw [6 x %"class.icu_77::CharString"], ptr %128, i64 0, i64 5
  %130 = call noundef signext i8 @_ZNK6icu_7710CharString7isEmptyEv(ptr noundef nonnull align 8 dereferenceable(60) %129)
  %131 = icmp ne i8 %130, 0
  br i1 %131, label %148, label %132

132:                                              ; preds = %126
  %133 = load ptr, ptr %3, align 8, !tbaa !35
  %134 = getelementptr inbounds nuw %struct.CollatorSpec, ptr %133, i32 0, i32 1
  call void @_ZN6icu_7711StringPieceC1EPKc(ptr noundef nonnull align 8 dereferenceable(12) %10, ptr noundef @_ZL15providerKeyword)
  %135 = load ptr, ptr %4, align 8, !tbaa !22
  %136 = getelementptr inbounds nuw { ptr, i32 }, ptr %10, i32 0, i32 0
  %137 = load ptr, ptr %136, align 8
  %138 = getelementptr inbounds nuw { ptr, i32 }, ptr %10, i32 0, i32 1
  %139 = load i32, ptr %138, align 8
  %140 = call noundef nonnull align 8 dereferenceable(60) ptr @_ZN6icu_7710CharString6appendENS_11StringPieceER10UErrorCode(ptr noundef nonnull align 8 dereferenceable(60) %134, ptr %137, i32 %139, ptr noundef nonnull align 4 dereferenceable(4) %135)
  %141 = load ptr, ptr %3, align 8, !tbaa !35
  %142 = getelementptr inbounds nuw %struct.CollatorSpec, ptr %141, i32 0, i32 1
  %143 = load ptr, ptr %3, align 8, !tbaa !35
  %144 = getelementptr inbounds nuw %struct.CollatorSpec, ptr %143, i32 0, i32 0
  %145 = getelementptr inbounds nuw [6 x %"class.icu_77::CharString"], ptr %144, i64 0, i64 5
  %146 = load ptr, ptr %4, align 8, !tbaa !22
  %147 = call noundef nonnull align 8 dereferenceable(60) ptr @_ZN6icu_7710CharString6appendERKS0_R10UErrorCode(ptr noundef nonnull align 8 dereferenceable(60) %142, ptr noundef nonnull align 8 dereferenceable(60) %145, ptr noundef nonnull align 4 dereferenceable(4) %146)
  br label %148

148:                                              ; preds = %132, %126
  br label %149

149:                                              ; preds = %148, %2
  ret void
}