; Function Attrs: mustprogress uwtable
define internal fastcc void @_ZL29ucol_sit_calculateWholeLocaleP12CollatorSpecR10UErrorCode(ptr noundef nonnull %0, ptr noundef nonnull align 4 dereferenceable(4) %1) unnamed_addr #1 {
  %3 = alloca %"class.icu_77::StringPiece", align 8
  %4 = alloca %"class.icu_77::StringPiece", align 8
  %5 = alloca %"class.icu_77::StringPiece", align 8
  %6 = alloca %"class.icu_77::StringPiece", align 8
  %7 = alloca %"class.icu_77::StringPiece", align 8
  %8 = alloca %"class.icu_77::StringPiece", align 8
  %9 = getelementptr inbounds nuw i8, ptr %0, i64 384
  %10 = getelementptr inbounds nuw i8, ptr %0, i64 440
  %11 = load i32, ptr %10, align 8, !tbaa !20
  %.not = icmp eq i32 %11, 0
  br i1 %.not, label %12, label %84

12:                                               ; preds = %2
  %13 = load ptr, ptr %0, align 8, !tbaa !3
  %14 = getelementptr inbounds nuw i8, ptr %0, i64 56
  %15 = load i32, ptr %14, align 8, !tbaa !20
  %16 = tail call noundef nonnull align 8 dereferenceable(60) ptr @_ZN6icu_7710CharString6appendEPKciR10UErrorCode(ptr noundef nonnull align 8 dereferenceable(60) %9, ptr noundef %13, i32 noundef %15, ptr noundef nonnull align 4 dereferenceable(4) %1)
  %17 = getelementptr inbounds nuw i8, ptr %0, i64 120
  %18 = load i32, ptr %17, align 8, !tbaa !20
  %.not43 = icmp eq i32 %18, 0
  br i1 %.not43, label %28, label %19

19:                                               ; preds = %12
  %20 = getelementptr inbounds nuw i8, ptr %0, i64 64
  call void @_ZN6icu_7711StringPieceC1EPKc(ptr noundef nonnull align 8 dereferenceable(12) %3, ptr noundef nonnull @.str.4)
  %21 = load ptr, ptr %3, align 8
  %22 = getelementptr inbounds nuw i8, ptr %3, i64 8
  %23 = load i32, ptr %22, align 8
  %24 = call noundef nonnull align 8 dereferenceable(60) ptr @_ZN6icu_7710CharString6appendEPKciR10UErrorCode(ptr noundef nonnull align 8 dereferenceable(60) %9, ptr noundef %21, i32 noundef %23, ptr noundef nonnull align 4 dereferenceable(4) %1)
  %25 = load ptr, ptr %20, align 8, !tbaa !3
  %26 = load i32, ptr %17, align 8, !tbaa !20
  %27 = call noundef nonnull align 8 dereferenceable(60) ptr @_ZN6icu_7710CharString6appendEPKciR10UErrorCode(ptr noundef nonnull align 8 dereferenceable(60) %9, ptr noundef %25, i32 noundef %26, ptr noundef nonnull align 4 dereferenceable(4) %1)
  br label %28

28:                                               ; preds = %19, %12
  %29 = getelementptr inbounds nuw i8, ptr %0, i64 184
  %30 = load i32, ptr %29, align 8, !tbaa !20
  %.not44 = icmp eq i32 %30, 0
  br i1 %.not44, label %40, label %31

31:                                               ; preds = %28
  %32 = getelementptr inbounds nuw i8, ptr %0, i64 128
  call void @_ZN6icu_7711StringPieceC1EPKc(ptr noundef nonnull align 8 dereferenceable(12) %4, ptr noundef nonnull @.str.4)
  %33 = load ptr, ptr %4, align 8
  %34 = getelementptr inbounds nuw i8, ptr %4, i64 8
  %35 = load i32, ptr %34, align 8
  %36 = call noundef nonnull align 8 dereferenceable(60) ptr @_ZN6icu_7710CharString6appendEPKciR10UErrorCode(ptr noundef nonnull align 8 dereferenceable(60) %9, ptr noundef %33, i32 noundef %35, ptr noundef nonnull align 4 dereferenceable(4) %1)
  %37 = load ptr, ptr %32, align 8, !tbaa !3
  %38 = load i32, ptr %29, align 8, !tbaa !20
  %39 = call noundef nonnull align 8 dereferenceable(60) ptr @_ZN6icu_7710CharString6appendEPKciR10UErrorCode(ptr noundef nonnull align 8 dereferenceable(60) %9, ptr noundef %37, i32 noundef %38, ptr noundef nonnull align 4 dereferenceable(4) %1)
  br label %48

40:                                               ; preds = %28
  %41 = getelementptr inbounds nuw i8, ptr %0, i64 248
  %42 = load i32, ptr %41, align 8, !tbaa !20
  %.not45 = icmp eq i32 %42, 0
  br i1 %.not45, label %48, label %43

43:                                               ; preds = %40
  call void @_ZN6icu_7711StringPieceC1EPKc(ptr noundef nonnull align 8 dereferenceable(12) %5, ptr noundef nonnull @.str.4)
  %44 = load ptr, ptr %5, align 8
  %45 = getelementptr inbounds nuw i8, ptr %5, i64 8
  %46 = load i32, ptr %45, align 8
  %47 = call noundef nonnull align 8 dereferenceable(60) ptr @_ZN6icu_7710CharString6appendEPKciR10UErrorCode(ptr noundef nonnull align 8 dereferenceable(60) %9, ptr noundef %44, i32 noundef %46, ptr noundef nonnull align 4 dereferenceable(4) %1)
  br label %48

48:                                               ; preds = %40, %43, %31
  %49 = getelementptr inbounds nuw i8, ptr %0, i64 248
  %50 = load i32, ptr %49, align 8, !tbaa !20
  %.not46 = icmp eq i32 %50, 0
  br i1 %.not46, label %60, label %51

51:                                               ; preds = %48
  %52 = getelementptr inbounds nuw i8, ptr %0, i64 192
  call void @_ZN6icu_7711StringPieceC1EPKc(ptr noundef nonnull align 8 dereferenceable(12) %6, ptr noundef nonnull @.str.4)
  %53 = load ptr, ptr %6, align 8
  %54 = getelementptr inbounds nuw i8, ptr %6, i64 8
  %55 = load i32, ptr %54, align 8
  %56 = call noundef nonnull align 8 dereferenceable(60) ptr @_ZN6icu_7710CharString6appendEPKciR10UErrorCode(ptr noundef nonnull align 8 dereferenceable(60) %9, ptr noundef %53, i32 noundef %55, ptr noundef nonnull align 4 dereferenceable(4) %1)
  %57 = load ptr, ptr %52, align 8, !tbaa !3
  %58 = load i32, ptr %49, align 8, !tbaa !20
  %59 = call noundef nonnull align 8 dereferenceable(60) ptr @_ZN6icu_7710CharString6appendEPKciR10UErrorCode(ptr noundef nonnull align 8 dereferenceable(60) %9, ptr noundef %57, i32 noundef %58, ptr noundef nonnull align 4 dereferenceable(4) %1)
  br label %60

60:                                               ; preds = %51, %48
  %61 = getelementptr inbounds nuw i8, ptr %0, i64 312
  %62 = load i32, ptr %61, align 8, !tbaa !20
  %.not47 = icmp eq i32 %62, 0
  br i1 %.not47, label %72, label %63

63:                                               ; preds = %60
  %64 = getelementptr inbounds nuw i8, ptr %0, i64 256
  call void @_ZN6icu_7711StringPieceC1EPKc(ptr noundef nonnull align 8 dereferenceable(12) %7, ptr noundef nonnull @_ZL16collationKeyword)
  %65 = load ptr, ptr %7, align 8
  %66 = getelementptr inbounds nuw i8, ptr %7, i64 8
  %67 = load i32, ptr %66, align 8
  %68 = call noundef nonnull align 8 dereferenceable(60) ptr @_ZN6icu_7710CharString6appendEPKciR10UErrorCode(ptr noundef nonnull align 8 dereferenceable(60) %9, ptr noundef %65, i32 noundef %67, ptr noundef nonnull align 4 dereferenceable(4) %1)
  %69 = load ptr, ptr %64, align 8, !tbaa !3
  %70 = load i32, ptr %61, align 8, !tbaa !20
  %71 = call noundef nonnull align 8 dereferenceable(60) ptr @_ZN6icu_7710CharString6appendEPKciR10UErrorCode(ptr noundef nonnull align 8 dereferenceable(60) %9, ptr noundef %69, i32 noundef %70, ptr noundef nonnull align 4 dereferenceable(4) %1)
  br label %72

72:                                               ; preds = %63, %60
  %73 = getelementptr inbounds nuw i8, ptr %0, i64 376
  %74 = load i32, ptr %73, align 8, !tbaa !20
  %.not48 = icmp eq i32 %74, 0
  br i1 %.not48, label %84, label %75

75:                                               ; preds = %72
  %76 = getelementptr inbounds nuw i8, ptr %0, i64 320
  call void @_ZN6icu_7711StringPieceC1EPKc(ptr noundef nonnull align 8 dereferenceable(12) %8, ptr noundef nonnull @_ZL15providerKeyword)
  %77 = load ptr, ptr %8, align 8
  %78 = getelementptr inbounds nuw i8, ptr %8, i64 8
  %79 = load i32, ptr %78, align 8
  %80 = call noundef nonnull align 8 dereferenceable(60) ptr @_ZN6icu_7710CharString6appendEPKciR10UErrorCode(ptr noundef nonnull align 8 dereferenceable(60) %9, ptr noundef %77, i32 noundef %79, ptr noundef nonnull align 4 dereferenceable(4) %1)
  %81 = load ptr, ptr %76, align 8, !tbaa !3
  %82 = load i32, ptr %73, align 8, !tbaa !20
  %83 = call noundef nonnull align 8 dereferenceable(60) ptr @_ZN6icu_7710CharString6appendEPKciR10UErrorCode(ptr noundef nonnull align 8 dereferenceable(60) %9, ptr noundef %81, i32 noundef %82, ptr noundef nonnull align 4 dereferenceable(4) %1)
  br label %84

84:                                               ; preds = %72, %75, %2
  ret void
}